target datalayout = "e-m:e-p270:32:32-p271:32:32-p272:64:64-i64:64-i128:128-f80:128-n8:16:32:64-S128"
target triple = "x86_64-pc-linux-gnu"

%"class.cv::Mat" = type { i32, i32, i32, i32, ptr, ptr, ptr, ptr, ptr, ptr, %"struct.cv::MatSize", %"struct.cv::MatStep" }
%"struct.cv::MatSize" = type { ptr }
%"struct.cv::MatStep" = type { ptr, [2 x i64] }
%"class.cv::Matx" = type { [9 x double] }
%"class.cv::_InputArray" = type { i32, ptr, %"class.cv::Size_" }
%"class.cv::Size_" = type { i32, i32 }
%"class.cv::_OutputArray" = type { %"class.cv::_InputArray" }
%"class.cv::MatExpr" = type { ptr, i32, %"class.cv::Mat", %"class.cv::Mat", %"class.cv::Mat", double, double, %"class.cv::Scalar_" }
%"class.cv::Scalar_" = type { %"class.cv::Vec" }
%"class.cv::Vec" = type { %"class.cv::Matx.51" }
%"class.cv::Matx.51" = type { [4 x double] }

; Function Attrs: inlinehint mustprogress nounwind uwtable
define linkonce_odr hidden void @_ZN2cv5Size_IiEC2Ev(ptr noundef nonnull align 4 dereferenceable(8) %0) unnamed_addr #10 comdat align 2 {
  %2 = alloca ptr, align 8
  store ptr %0, ptr %2, align 8, !tbaa !204
  %3 = load ptr, ptr %2, align 8
  %4 = getelementptr inbounds nuw %"class.cv::Size_", ptr %3, i32 0, i32 0
  store i32 0, ptr %4, align 4, !tbaa !206
  %5 = getelementptr inbounds nuw %"class.cv::Size_", ptr %3, i32 0, i32 1
  store i32 0, ptr %5, align 4, !tbaa !208
  ret void
}

; Function Attrs: inlinehint mustprogress nounwind uwtable
define linkonce_odr hidden void @_ZN2cv11_InputArray4initEiPKv(ptr noundef nonnull align 8 dereferenceable(24) %0, i32 noundef %1, ptr noundef %2) #10 comdat align 2 {
  %4 = alloca ptr, align 8
  %5 = alloca i32, align 4
  %6 = alloca ptr, align 8
  store ptr %0, ptr %4, align 8, !tbaa !66
  store i32 %1, ptr %5, align 4, !tbaa !4
  store ptr %2, ptr %6, align 8, !tbaa !229
  %7 = load ptr, ptr %4, align 8
  %8 = load i32, ptr %5, align 4, !tbaa !4
  %9 = getelementptr inbounds nuw %"class.cv::_InputArray", ptr %7, i32 0, i32 0
  store i32 %8, ptr %9, align 8, !tbaa !230
  %10 = load ptr, ptr %6, align 8, !tbaa !229
  %11 = getelementptr inbounds nuw %"class.cv::_InputArray", ptr %7, i32 0, i32 1
  store ptr %10, ptr %11, align 8, !tbaa !232
  ret void
}

; Function Attrs: inlinehint mustprogress uwtable
define linkonce_odr hidden void @_ZN2cv11_InputArrayC2Ev(ptr noundef nonnull align 8 dereferenceable(24) %0) unnamed_addr #9 comdat align 2 {
  %2 = alloca ptr, align 8
  store ptr %0, ptr %2, align 8, !tbaa !66
  %3 = load ptr, ptr %2, align 8
  %4 = getelementptr inbounds nuw %"class.cv::_InputArray", ptr %3, i32 0, i32 2
  call void @_ZN2cv5Size_IiEC2Ev(ptr noundef nonnull align 4 dereferenceable(8) %4)
  call void @_ZN2cv11_InputArray4initEiPKv(ptr noundef nonnull align 8 dereferenceable(24) %3, i32 noundef 0, ptr noundef null)
  ret void
}

; Function Attrs: inlinehint mustprogress nounwind uwtable
define linkonce_odr hidden void @_ZN2cv11_InputArrayD2Ev(ptr noundef nonnull align 8 dereferenceable(24) %0) unnamed_addr #10 comdat align 2 {
  %2 = alloca ptr, align 8
  store ptr %0, ptr %2, align 8, !tbaa !66
  ret void
}

; Function Attrs: inlinehint mustprogress uwtable
define linkonce_odr hidden void @_ZN2cv12_OutputArrayC2ERNS_3MatE(ptr noundef nonnull align 8 dereferenceable(24) %0, ptr noundef nonnull align 8 dereferenceable(96) %1) unnamed_addr #9 comdat align 2 {
  %3 = alloca ptr, align 8
  %4 = alloca ptr, align 8
  store ptr %0, ptr %3, align 8, !tbaa !68
  store ptr %1, ptr %4, align 8, !tbaa !30
  %5 = load ptr, ptr %3, align 8
  call void @_ZN2cv11_InputArrayC2Ev(ptr noundef nonnull align 8 dereferenceable(24) %5)
  %6 = load ptr, ptr %4, align 8, !tbaa !30
  call void @_ZN2cv11_InputArray4initEiPKv(ptr noundef nonnull align 8 dereferenceable(24) %5, i32 noundef 33619968, ptr noundef %6)
  ret void
}

; Function Attrs: inlinehint mustprogress nounwind uwtable
define linkonce_odr hidden noundef nonnull align 8 dereferenceable(8) ptr @_ZN2cv7MatStepixEi(ptr noundef nonnull align 8 dereferenceable(24) %0, i32 noundef %1) #10 comdat align 2 {
  %3 = alloca ptr, align 8
  %4 = alloca i32, align 4
  store ptr %0, ptr %3, align 8, !tbaa !536
  store i32 %1, ptr %4, align 4, !tbaa !4
  %5 = load ptr, ptr %3, align 8
  %6 = getelementptr inbounds nuw %"struct.cv::MatStep", ptr %5, i32 0, i32 0
  %7 = load ptr, ptr %6, align 8, !tbaa !538
  %8 = load i32, ptr %4, align 4, !tbaa !4
  %9 = sext i32 %8 to i64
  %10 = getelementptr inbounds i64, ptr %7, i64 %9
  ret ptr %10
}

; Function Attrs: inlinehint mustprogress nounwind uwtable
define linkonce_odr hidden void @_ZN2cv7MatStepC2Em(ptr noundef nonnull align 8 dereferenceable(24) %0, i64 noundef %1) unnamed_addr #10 comdat align 2 {
  %3 = alloca ptr, align 8
  %4 = alloca i64, align 8
  store ptr %0, ptr %3, align 8, !tbaa !536
  store i64 %1, ptr %4, align 8, !tbaa !79
  %5 = load ptr, ptr %3, align 8
  %6 = getelementptr inbounds nuw %"struct.cv::MatStep", ptr %5, i32 0, i32 1
  %7 = getelementptr inbounds [2 x i64], ptr %6, i64 0, i64 0
  %8 = getelementptr inbounds nuw %"struct.cv::MatStep", ptr %5, i32 0, i32 0
  store ptr %7, ptr %8, align 8, !tbaa !538
  %9 = load i64, ptr %4, align 8, !tbaa !79
  %10 = getelementptr inbounds nuw %"struct.cv::MatStep", ptr %5, i32 0, i32 0
  %11 = load ptr, ptr %10, align 8, !tbaa !538
  %12 = getelementptr inbounds i64, ptr %11, i64 0
  store i64 %9, ptr %12, align 8, !tbaa !79
  %13 = getelementptr inbounds nuw %"struct.cv::MatStep", ptr %5, i32 0, i32 0
  %14 = load ptr, ptr %13, align 8, !tbaa !538
  %15 = getelementptr inbounds i64, ptr %14, i64 1
  store i64 0, ptr %15, align 8, !tbaa !79
  ret void
}

; Function Attrs: inlinehint mustprogress nounwind uwtable
define linkonce_odr hidden void @_ZN2cv7MatSizeC2EPi(ptr noundef nonnull align 8 dereferenceable(8) %0, ptr noundef %1) unnamed_addr #10 comdat align 2 {
  %3 = alloca ptr, align 8
  %4 = alloca ptr, align 8
  store ptr %0, ptr %3, align 8, !tbaa !533
  store ptr %1, ptr %4, align 8, !tbaa !70
  %5 = load ptr, ptr %3, align 8
  %6 = getelementptr inbounds nuw %"struct.cv::MatSize", ptr %5, i32 0, i32 0
  %7 = load ptr, ptr %4, align 8, !tbaa !70
  store ptr %7, ptr %6, align 8, !tbaa !535
  ret void
}

; Function Attrs: inlinehint mustprogress uwtable
define linkonce_odr hidden void @_ZN2cv3MatC2IdLi3ELi3EEERKNS_4MatxIT_XT0_EXT1_EEEb(ptr noundef nonnull align 8 dereferenceable(96) %0, ptr noundef nonnull align 8 dereferenceable(72) %1, i1 noundef zeroext %2) unnamed_addr #9 comdat align 2 personality ptr @__gxx_personality_v0 {
  %4 = alloca ptr, align 8
  %5 = alloca ptr, align 8
  %6 = alloca i8, align 1
  %7 = alloca %"class.cv::Mat", align 8
  %8 = alloca %"class.cv::_OutputArray", align 8
  %9 = alloca ptr, align 8
  %10 = alloca i32, align 4
  store ptr %0, ptr %4, align 8, !tbaa !30
  store ptr %1, ptr %5, align 8, !tbaa !57
  %11 = zext i1 %2 to i8
  store i8 %11, ptr %6, align 1, !tbaa !102
  %12 = load ptr, ptr %4, align 8
  %13 = getelementptr inbounds nuw %"class.cv::Mat", ptr %12, i32 0, i32 0
  store i32 1124024326, ptr %13, align 8, !tbaa !104
  %14 = getelementptr inbounds nuw %"class.cv::Mat", ptr %12, i32 0, i32 1
  store i32 2, ptr %14, align 4, !tbaa !105
  %15 = getelementptr inbounds nuw %"class.cv::Mat", ptr %12, i32 0, i32 2
  store i32 3, ptr %15, align 8, !tbaa !46
  %16 = getelementptr inbounds nuw %"class.cv::Mat", ptr %12, i32 0, i32 3
  store i32 3, ptr %16, align 4, !tbaa !38
  %17 = getelementptr inbounds nuw %"class.cv::Mat", ptr %12, i32 0, i32 4
  store ptr null, ptr %17, align 8, !tbaa !106
  %18 = getelementptr inbounds nuw %"class.cv::Mat", ptr %12, i32 0, i32 5
  store ptr null, ptr %18, align 8, !tbaa !107
  %19 = getelementptr inbounds nuw %"class.cv::Mat", ptr %12, i32 0, i32 6
  store ptr null, ptr %19, align 8, !tbaa !108
  %20 = getelementptr inbounds nuw %"class.cv::Mat", ptr %12, i32 0, i32 7
  store ptr null, ptr %20, align 8, !tbaa !109
  %21 = getelementptr inbounds nuw %"class.cv::Mat", ptr %12, i32 0, i32 8
  store ptr null, ptr %21, align 8, !tbaa !110
  %22 = getelementptr inbounds nuw %"class.cv::Mat", ptr %12, i32 0, i32 9
  store ptr null, ptr %22, align 8, !tbaa !111
  %23 = getelementptr inbounds nuw %"class.cv::Mat", ptr %12, i32 0, i32 10
  %24 = getelementptr inbounds nuw %"class.cv::Mat", ptr %12, i32 0, i32 2
  call void @_ZN2cv7MatSizeC2EPi(ptr noundef nonnull align 8 dereferenceable(8) %23, ptr noundef %24) #3
  %25 = getelementptr inbounds nuw %"class.cv::Mat", ptr %12, i32 0, i32 11
  call void @_ZN2cv7MatStepC2Em(ptr noundef nonnull align 8 dereferenceable(24) %25, i64 noundef 0) #3
  %26 = load i8, ptr %6, align 1, !tbaa !102, !range !112, !noundef !113
  %27 = trunc i8 %26 to i1
  br i1 %27, label %54, label %28

28:                                               ; preds = %3
  %29 = getelementptr inbounds nuw %"class.cv::Mat", ptr %12, i32 0, i32 3
  %30 = load i32, ptr %29, align 4, !tbaa !38
  %31 = sext i32 %30 to i64
  %32 = mul i64 %31, 8
  %33 = getelementptr inbounds nuw %"class.cv::Mat", ptr %12, i32 0, i32 11
  %34 = call noundef nonnull align 8 dereferenceable(8) ptr @_ZN2cv7MatStepixEi(ptr noundef nonnull align 8 dereferenceable(24) %33, i32 noundef 0) #3
  store i64 %32, ptr %34, align 8, !tbaa !79
  %35 = getelementptr inbounds nuw %"class.cv::Mat", ptr %12, i32 0, i32 11
  %36 = call noundef nonnull align 8 dereferenceable(8) ptr @_ZN2cv7MatStepixEi(ptr noundef nonnull align 8 dereferenceable(24) %35, i32 noundef 1) #3
  store i64 8, ptr %36, align 8, !tbaa !79
  %37 = load ptr, ptr %5, align 8, !tbaa !57
  %38 = getelementptr inbounds nuw %"class.cv::Matx", ptr %37, i32 0, i32 0
  %39 = getelementptr inbounds [9 x double], ptr %38, i64 0, i64 0
  %40 = getelementptr inbounds nuw %"class.cv::Mat", ptr %12, i32 0, i32 4
  store ptr %39, ptr %40, align 8, !tbaa !106
  %41 = getelementptr inbounds nuw %"class.cv::Mat", ptr %12, i32 0, i32 5
  store ptr %39, ptr %41, align 8, !tbaa !107
  %42 = getelementptr inbounds nuw %"class.cv::Mat", ptr %12, i32 0, i32 5
  %43 = load ptr, ptr %42, align 8, !tbaa !107
  %44 = getelementptr inbounds nuw %"class.cv::Mat", ptr %12, i32 0, i32 2
  %45 = load i32, ptr %44, align 8, !tbaa !46
  %46 = sext i32 %45 to i64
  %47 = getelementptr inbounds nuw %"class.cv::Mat", ptr %12, i32 0, i32 11
  %48 = call noundef nonnull align 8 dereferenceable(8) ptr @_ZN2cv7MatStepixEi(ptr noundef nonnull align 8 dereferenceable(24) %47, i32 noundef 0) #3
  %49 = load i64, ptr %48, align 8, !tbaa !79
  %50 = mul i64 %46, %49
  %51 = getelementptr inbounds nuw i8, ptr %43, i64 %50
  %52 = getelementptr inbounds nuw %"class.cv::Mat", ptr %12, i32 0, i32 6
  store ptr %51, ptr %52, align 8, !tbaa !108
  %53 = getelementptr inbounds nuw %"class.cv::Mat", ptr %12, i32 0, i32 7
  store ptr %51, ptr %53, align 8, !tbaa !109
  br label %69

54:                                               ; preds = %3
  call void @llvm.lifetime.start.p0(i64 96, ptr %7) #3
  %55 = load ptr, ptr %5, align 8, !tbaa !57
  %56 = getelementptr inbounds nuw %"class.cv::Matx", ptr %55, i32 0, i32 0
  %57 = getelementptr inbounds [9 x double], ptr %56, i64 0, i64 0
  call void @_ZN2cv3MatC1EiiiPvm(ptr noundef nonnull align 8 dereferenceable(96) %7, i32 noundef 3, i32 noundef 3, i32 noundef 6, ptr noundef %57, i64 noundef 0)
  call void @llvm.lifetime.start.p0(i64 24, ptr %8) #3
  invoke void @_ZN2cv12_OutputArrayC2ERNS_3MatE(ptr noundef nonnull align 8 dereferenceable(24) %8, ptr noundef nonnull align 8 dereferenceable(96) %12)
          to label %58 unwind label %60

58:                                               ; preds = %54
  invoke void @_ZNK2cv3Mat6copyToERKNS_12_OutputArrayE(ptr noundef nonnull align 8 dereferenceable(96) %7, ptr noundef nonnull align 8 dereferenceable(24) %8)
          to label %59 unwind label %64

59:                                               ; preds = %58
  call void @_ZN2cv11_InputArrayD2Ev(ptr noundef nonnull align 8 dereferenceable(24) %8) #3
  call void @llvm.lifetime.end.p0(i64 24, ptr %8) #3
  call void @_ZN2cv3MatD1Ev(ptr noundef nonnull align 8 dereferenceable(96) %7) #3
  call void @llvm.lifetime.end.p0(i64 96, ptr %7) #3
  br label %69

60:                                               ; preds = %54
  %61 = landingpad { ptr, i32 }
          cleanup
  %62 = extractvalue { ptr, i32 } %61, 0
  store ptr %62, ptr %9, align 8
  %63 = extractvalue { ptr, i32 } %61, 1
  store i32 %63, ptr %10, align 4
  br label %68

64:                                               ; preds = %58
  %65 = landingpad { ptr, i32 }
          cleanup
  %66 = extractvalue { ptr, i32 } %65, 0
  store ptr %66, ptr %9, align 8
  %67 = extractvalue { ptr, i32 } %65, 1
  store i32 %67, ptr %10, align 4
  call void @_ZN2cv11_InputArrayD2Ev(ptr noundef nonnull align 8 dereferenceable(24) %8) #3
  br label %68

68:                                               ; preds = %64, %60
  call void @llvm.lifetime.end.p0(i64 24, ptr %8) #3
  call void @_ZN2cv3MatD1Ev(ptr noundef nonnull align 8 dereferenceable(96) %7) #3
  call void @llvm.lifetime.end.p0(i64 96, ptr %7) #3
  br label %70

69:                                               ; preds = %59, %28
  ret void

70:                                               ; preds = %68
  %71 = load ptr, ptr %9, align 8
  %72 = load i32, ptr %10, align 4
  %73 = insertvalue { ptr, i32 } poison, ptr %71, 0
  %74 = insertvalue { ptr, i32 } %73, i32 %72, 1
  resume { ptr, i32 } %74
}

; Function Attrs: inlinehint mustprogress uwtable
define internal void @_ZN2cvmlIdLi3ELi3EEENS_7MatExprERKNS_4MatxIT_XT0_EXT1_EEERKNS_3MatE(ptr dead_on_unwind noalias writable sret(%"class.cv::MatExpr") align 8 %0, ptr noundef nonnull align 8 dereferenceable(72) %1, ptr noundef nonnull align 8 dereferenceable(96) %2) #9 personality ptr @__gxx_personality_v0 {
  %4 = alloca ptr, align 8
  %5 = alloca ptr, align 8
  %6 = alloca ptr, align 8
  %7 = alloca %"class.cv::Mat", align 8
  %8 = alloca ptr, align 8
  %9 = alloca i32, align 4
  store ptr %0, ptr %4, align 8
  store ptr %1, ptr %5, align 8, !tbaa !57
  store ptr %2, ptr %6, align 8, !tbaa !30
  call void @llvm.lifetime.start.p0(i64 96, ptr %7) #3
  %10 = load ptr, ptr %5, align 8, !tbaa !57
  call void @_ZN2cv3MatC2IdLi3ELi3EEERKNS_4MatxIT_XT0_EXT1_EEEb(ptr noundef nonnull align 8 dereferenceable(96) %7, ptr noundef nonnull align 8 dereferenceable(72) %10, i1 noundef zeroext true)
  %11 = load ptr, ptr %6, align 8, !tbaa !30
  invoke void @_ZN2cvmlERKNS_3MatES2_(ptr dead_on_unwind writable sret(%"class.cv::MatExpr") align 8 %0, ptr noundef nonnull align 8 dereferenceable(96) %7, ptr noundef nonnull align 8 dereferenceable(96) %11)
          to label %12 unwind label %13

12:                                               ; preds = %3
  call void @_ZN2cv3MatD1Ev(ptr noundef nonnull align 8 dereferenceable(96) %7) #3
  call void @llvm.lifetime.end.p0(i64 96, ptr %7) #3
  ret void

13:                                               ; preds = %3
  %14 = landingpad { ptr, i32 }
          cleanup
  %15 = extractvalue { ptr, i32 } %14, 0
  store ptr %15, ptr %8, align 8
  %16 = extractvalue { ptr, i32 } %14, 1
  store i32 %16, ptr %9, align 4
  call void @_ZN2cv3MatD1Ev(ptr noundef nonnull align 8 dereferenceable(96) %7) #3
  call void @llvm.lifetime.end.p0(i64 96, ptr %7) #3
  br label %17

17:                                               ; preds = %13
  %18 = load ptr, ptr %8, align 8
  %19 = load i32, ptr %9, align 4
  %20 = insertvalue { ptr, i32 } poison, ptr %18, 0
  %21 = insertvalue { ptr, i32 } %20, i32 %19, 1
  resume { ptr, i32 } %21
}